(dp0
S'METTS MARK'
p1
(dp2
S'percentual_of_messages_sent_to_poi'
p3
F0.12391573729863693
sS'to_messages'
p4
I807
sS'deferral_payments'
p5
S'NaN'
p6
sS'expenses'
p7
I94299
sS'poi'
p8
I00
sS'deferred_income'
p9
g6
sS'email_address'
p10
S'mark.metts@enron.com'
p11
sS'long_term_incentive'
p12
g6
sS'restricted_stock_deferred'
p13
g6
sS'shared_receipt_with_poi'
p14
I702
sS'loan_advances'
p15
g6
sS'from_messages'
p16
I29
sS'other'
p17
I1740
sS'director_fees'
p18
g6
sS'percentual_of_messages_received_from_poi'
p19
F131.0344827586207
sS'bonus'
p20
I600000
sS'total_stock_value'
p21
I585062
sS'from_poi_to_this_person'
p22
I38
sS'from_this_person_to_poi'
p23
I1
sS'restricted_stock'
p24
I585062
sS'salary'
p25
I365788
sS'total_payments'
p26
I1061827
sS'exercised_stock_options'
p27
g6
ssS'BAXTER JOHN C'
p28
(dp29
g3
S'NaN'
p30
sg4
g6
sg5
I1295738
sg7
I11200
sg8
I00
sg9
I-1386055
sg10
g6
sg12
I1586055
sg13
g6
sg14
g6
sg15
g6
sg16
g6
sg17
I2660303
sg18
g6
sg19
g30
sg20
I1200000
sg21
I10623258
sg22
g6
sg23
g6
sg24
I3942714
sg25
I267102
sg26
I5634343
sg27
I6680544
ssS'ELLIOTT STEVEN'
p31
(dp32
g3
g30
sg4
g6
sg5
g6
sg7
I78552
sg8
I00
sg9
I-400729
sg10
S'steven.elliott@enron.com'
p33
sg12
g6
sg13
g6
sg14
g6
sg15
g6
sg16
g6
sg17
I12961
sg18
g6
sg19
g30
sg20
I350000
sg21
I6678735
sg22
g6
sg23
g6
sg24
I1788391
sg25
I170941
sg26
I211725
sg27
I4890344
ssS'CORDES WILLIAM R'
p34
(dp35
g3
F0.0
sg4
I764
sg5
g6
sg7
g6
sg8
I00
sg9
g6
sg10
S'bill.cordes@enron.com'
p36
sg12
g6
sg13
g6
sg14
I58
sg15
g6
sg16
I12
sg17
g6
sg18
g6
sg19
F83.33333333333334
sg20
g6
sg21
I1038185
sg22
I10
sg23
I0
sg24
I386335
sg25
g6
sg26
g6
sg27
I651850
ssS'HANNON KEVIN P'
p37
(dp38
g3
F2.0095693779904304
sg4
I1045
sg5
g6
sg7
I34039
sg8
I01
sg9
I-3117011
sg10
S'kevin.hannon@enron.com'
p39
sg12
I1617011
sg13
g6
sg14
I1035
sg15
g6
sg16
I32
sg17
I11350
sg18
g6
sg19
F100.0
sg20
I1500000
sg21
I6391065
sg22
I32
sg23
I21
sg24
I853064
sg25
I243293
sg26
I288682
sg27
I5538001
ssS'MORDAUNT KRISTINA M'
p40
(dp41
g3
g30
sg4
g6
sg5
g6
sg7
I35018
sg8
I00
sg9
g6
sg10
S'kristina.mordaunt@enron.com'
p42
sg12
g6
sg13
g6
sg14
g6
sg15
g6
sg16
g6
sg17
I1411
sg18
g6
sg19
g30
sg20
I325000
sg21
I208510
sg22
g6
sg23
g6
sg24
I208510
sg25
I267093
sg26
I628522
sg27
g6
ssS'MEYER ROCKFORD G'
p43
(dp44
g3
F0.0
sg4
I232
sg5
I1848227
sg7
g6
sg8
I00
sg9
g6
sg10
S'rockford.meyer@enron.com'
p45
sg12
g6
sg13
g6
sg14
I22
sg15
g6
sg16
I28
sg17
g6
sg18
g6
sg19
F0.0
sg20
g6
sg21
I955873
sg22
I0
sg23
I0
sg24
I462384
sg25
g6
sg26
I1848227
sg27
I493489
ssS'MCMAHON JEFFREY'
p46
(dp47
g3
F1.1040339702760085
sg4
I2355
sg5
g6
sg7
I137108
sg8
I00
sg9
g6
sg10
S'jeffrey.mcmahon@enron.com'
p48
sg12
I694862
sg13
g6
sg14
I2228
sg15
g6
sg16
I48
sg17
I297353
sg18
g6
sg19
F120.83333333333333
sg20
I2600000
sg21
I1662855
sg22
I58
sg23
I26
sg24
I558801
sg25
I370448
sg26
I4099771
sg27
I1104054
ssS'HORTON STANLEY C'
p49
(dp50
g3
F0.6382978723404255
sg4
I2350
sg5
I3131860
sg7
g6
sg8
I00
sg9
g6
sg10
S'stanley.horton@enron.com'
p51
sg12
g6
sg13
g6
sg14
I1074
sg15
g6
sg16
I1073
sg17
g6
sg18
g6
sg19
F4.100652376514446
sg20
g6
sg21
I7256648
sg22
I44
sg23
I15
sg24
I2046079
sg25
g6
sg26
I3131860
sg27
I5210569
ssS'PIPER GREGORY F'
p52
(dp53
g3
F3.877221324717286
sg4
I1238
sg5
I1130036
sg7
I43057
sg8
I00
sg9
I-33333
sg10
S'greg.piper@enron.com'
p54
sg12
g6
sg13
I-409554
sg14
I742
sg15
g6
sg16
I222
sg17
I778
sg18
g6
sg19
F27.47747747747748
sg20
I400000
sg21
I880290
sg22
I61
sg23
I48
sg24
I409554
sg25
I197091
sg26
I1737629
sg27
I880290
ssS'HUMPHREY GENE E'
p55
(dp56
g3
F13.28125
sg4
I128
sg5
I2964506
sg7
I4994
sg8
I00
sg9
g6
sg10
S'gene.humphrey@enron.com'
p57
sg12
g6
sg13
g6
sg14
I119
sg15
g6
sg16
I17
sg17
g6
sg18
g6
sg19
F58.82352941176471
sg20
g6
sg21
I2282768
sg22
I10
sg23
I17
sg24
g6
sg25
I130724
sg26
I3100224
sg27
I2282768
ssS'UMANOFF ADAM S'
p58
(dp59
g3
F0.0
sg4
I111
sg5
g6
sg7
I53122
sg8
I00
sg9
g6
sg10
S'adam.umanoff@enron.com'
p60
sg12
g6
sg13
g6
sg14
I41
sg15
g6
sg16
I18
sg17
g6
sg18
g6
sg19
F66.66666666666666
sg20
I788750
sg21
g6
sg22
I12
sg23
I0
sg24
g6
sg25
I288589
sg26
I1130461
sg27
g6
ssS'BLACHMAN JEREMY M'
p61
(dp62
g3
F0.0808080808080808
sg4
I2475
sg5
g6
sg7
I84208
sg8
I00
sg9
g6
sg10
S'jeremy.blachman@enron.com'
p63
sg12
I831809
sg13
g6
sg14
I2326
sg15
g6
sg16
I14
sg17
I272
sg18
g6
sg19
F178.57142857142858
sg20
I850000
sg21
I954354
sg22
I25
sg23
I2
sg24
I189041
sg25
I248546
sg26
I2014835
sg27
I765313
ssS'SUNDE MARTIN'
p64
(dp65
g3
F0.4911220249338874
sg4
I2647
sg5
g6
sg7
g6
sg8
I00
sg9
g6
sg10
S'marty.sunde@enron.com'
p66
sg12
I476451
sg13
g6
sg14
I2565
sg15
g6
sg16
I38
sg17
I111122
sg18
g6
sg19
F97.36842105263158
sg20
I700000
sg21
I698920
sg22
I37
sg23
I13
sg24
I698920
sg25
I257486
sg26
I1545059
sg27
g6
ssS'GIBBS DANA R'
p67
(dp68
g3
F0.0
sg4
I169
sg5
I504610
sg7
g6
sg8
I00
sg9
g6
sg10
S'dana.gibbs@enron.com'
p69
sg12
I461912
sg13
g6
sg14
I23
sg15
g6
sg16
I12
sg17
g6
sg18
g6
sg19
F0.0
sg20
g6
sg21
I2218275
sg22
I0
sg23
I0
sg24
g6
sg25
g6
sg26
I966522
sg27
I2218275
ssS'LOWRY CHARLES P'
p70
(dp71
g3
g30
sg4
g6
sg5
g6
sg7
g6
sg8
I00
sg9
g6
sg10
g6
sg12
g6
sg13
I-153686
sg14
g6
sg15
g6
sg16
g6
sg17
g6
sg18
g6
sg19
g30
sg20
g6
sg21
I372205
sg22
g6
sg23
g6
sg24
I153686
sg25
g6
sg26
g6
sg27
I372205
ssS'COLWELL WESLEY'
p72
(dp73
g3
F0.6257110352673493
sg4
I1758
sg5
I27610
sg7
I16514
sg8
I01
sg9
I-144062
sg10
S'wes.colwell@enron.com'
p74
sg12
g6
sg13
g6
sg14
I1132
sg15
g6
sg16
I40
sg17
I101740
sg18
g6
sg19
F600.0
sg20
I1200000
sg21
I698242
sg22
I240
sg23
I11
sg24
I698242
sg25
I288542
sg26
I1490344
sg27
g6
ssS'MULLER MARK S'
p75
(dp76
g3
F0.0
sg4
I136
sg5
I842924
sg7
g6
sg8
I00
sg9
I-719000
sg10
S's..muller@enron.com'
p77
sg12
I1725545
sg13
g6
sg14
I114
sg15
g6
sg16
I16
sg17
I947
sg18
g6
sg19
F75.0
sg20
I1100000
sg21
I1416848
sg22
I12
sg23
I0
sg24
I360528
sg25
I251654
sg26
I3202070
sg27
I1056320
ssS'JACKSON CHARLENE R'
p78
(dp79
g3
F7.3643410852713185
sg4
I258
sg5
g6
sg7
I10181
sg8
I00
sg9
g6
sg10
S'charlene.jackson@enron.com'
p80
sg12
g6
sg13
g6
sg14
I117
sg15
g6
sg16
I56
sg17
I2435
sg18
g6
sg19
F44.642857142857146
sg20
I250000
sg21
I725735
sg22
I25
sg23
I19
sg24
I540672
sg25
I288558
sg26
I551174
sg27
I185063
ssS'WESTFAHL RICHARD K'
p81
(dp82
g3
g30
sg4
g6
sg5
g6
sg7
I51870
sg8
I00
sg9
I-10800
sg10
S'dick.westfahl@enron.com'
p83
sg12
I256191
sg13
g6
sg14
g6
sg15
g6
sg16
g6
sg17
I401130
sg18
g6
sg19
g30
sg20
g6
sg21
I384930
sg22
g6
sg23
g6
sg24
I384930
sg25
I63744
sg26
I762135
sg27
g6
ssS'WALTERS GARETH W'
p84
(dp85
g3
g30
sg4
g6
sg5
I53625
sg7
I33785
sg8
I00
sg9
g6
sg10
g6
sg12
g6
sg13
g6
sg14
g6
sg15
g6
sg16
g6
sg17
g6
sg18
g6
sg19
g30
sg20
g6
sg21
I1030329
sg22
g6
sg23
g6
sg24
g6
sg25
g6
sg26
I87410
sg27
I1030329
ssS'WALLS JR ROBERT H'
p86
(dp87
g3
F0.0
sg4
I671
sg5
g6
sg7
I50936
sg8
I00
sg9
g6
sg10
S'rob.walls@enron.com'
p88
sg12
I540751
sg13
g6
sg14
I215
sg15
g6
sg16
I146
sg17
I2
sg18
g6
sg19
F11.643835616438356
sg20
I850000
sg21
I5898997
sg22
I17
sg23
I0
sg24
I1552453
sg25
I357091
sg26
I1798780
sg27
I4346544
ssS'KITCHEN LOUISE'
p89
(dp90
g3
F2.3359422034918724
sg4
I8305
sg5
g6
sg7
I5774
sg8
I00
sg9
g6
sg10
S'louise.kitchen@enron.com'
p91
sg12
g6
sg13
g6
sg14
I3669
sg15
g6
sg16
I1728
sg17
I93925
sg18
g6
sg19
F14.525462962962962
sg20
I3100000
sg21
I547143
sg22
I251
sg23
I194
sg24
I466101
sg25
I271442
sg26
I3471141
sg27
I81042
ssS'CHAN RONNIE'
p92
(dp93
g3
g30
sg4
g6
sg5
g6
sg7
g6
sg8
I00
sg9
I-98784
sg10
g6
sg12
g6
sg13
I-32460
sg14
g6
sg15
g6
sg16
g6
sg17
g6
sg18
I98784
sg19
g30
sg20
g6
sg21
g6
sg22
g6
sg23
g6
sg24
I32460
sg25
g6
sg26
g6
sg27
g6
ssS'BELFER ROBERT'
p94
(dp95
g3
g30
sg4
g6
sg5
I-102500
sg7
g6
sg8
I00
sg9
g6
sg10
g6
sg12
g6
sg13
I44093
sg14
g6
sg15
g6
sg16
g6
sg17
g6
sg18
I3285
sg19
g30
sg20
g6
sg21
I-44093
sg22
g6
sg23
g6
sg24
g6
sg25
g6
sg26
I102500
sg27
I3285
ssS'SHANKMAN JEFFREY A'
p96
(dp97
g3
F2.5768394908413534
sg4
I3221
sg5
g6
sg7
I178979
sg8
I00
sg9
g6
sg10
S'jeffrey.shankman@enron.com'
p98
sg12
I554422
sg13
g6
sg14
I1730
sg15
g6
sg16
I2681
sg17
I1191
sg18
g6
sg19
F3.5061544199925403
sg20
I2000000
sg21
I2072035
sg22
I94
sg23
I83
sg24
I630137
sg25
I304110
sg26
I3038702
sg27
I1441898
ssS'WODRASKA JOHN'
p99
(dp100
g3
g30
sg4
g6
sg5
g6
sg7
g6
sg8
I00
sg9
g6
sg10
S'john.wodraska@enron.com'
p101
sg12
g6
sg13
g6
sg14
g6
sg15
g6
sg16
g6
sg17
I189583
sg18
g6
sg19
g30
sg20
g6
sg21
g6
sg22
g6
sg23
g6
sg24
g6
sg25
g6
sg26
I189583
sg27
g6
ssS'BERGSIEKER RICHARD P'
p102
(dp103
g3
F0.0
sg4
I383
sg5
g6
sg7
I59175
sg8
I00
sg9
I-485813
sg10
S'rick.bergsieker@enron.com'
p104
sg12
I180250
sg13
g6
sg14
I233
sg15
g6
sg16
I59
sg17
I427316
sg18
g6
sg19
F6.779661016949152
sg20
I250000
sg21
I659249
sg22
I4
sg23
I0
sg24
I659249
sg25
I187922
sg26
I618850
sg27
g6
ssS'URQUHART JOHN A'
p105
(dp106
g3
g30
sg4
g6
sg5
g6
sg7
I228656
sg8
I00
sg9
I-36666
sg10
g6
sg12
g6
sg13
g6
sg14
g6
sg15
g6
sg16
g6
sg17
g6
sg18
I36666
sg19
g30
sg20
g6
sg21
g6
sg22
g6
sg23
g6
sg24
g6
sg25
g6
sg26
I228656
sg27
g6
ssS'BIBI PHILIPPE A'
p107
(dp108
g3
F0.49782202862476665
sg4
I1607
sg5
g6
sg7
I38559
sg8
I00
sg9
g6
sg10
S'philippe.bibi@enron.com'
p109
sg12
I369721
sg13
g6
sg14
I1336
sg15
g6
sg16
I40
sg17
I425688
sg18
g6
sg19
F57.49999999999999
sg20
I1000000
sg21
I1843816
sg22
I23
sg23
I8
sg24
I378082
sg25
I213625
sg26
I2047593
sg27
I1465734
ssS'RIEKER PAULA H'
p110
(dp111
g3
F3.614457831325301
sg4
I1328
sg5
I214678
sg7
I33271
sg8
I01
sg9
I-100000
sg10
S'paula.rieker@enron.com'
p112
sg12
g6
sg13
g6
sg14
I1258
sg15
g6
sg16
I82
sg17
I1950
sg18
g6
sg19
F42.68292682926829
sg20
I700000
sg21
I1918887
sg22
I35
sg23
I48
sg24
I283649
sg25
I249201
sg26
I1099100
sg27
I1635238
ssS'WHALEY DAVID A'
p113
(dp114
g3
g30
sg4
g6
sg5
g6
sg7
g6
sg8
I00
sg9
g6
sg10
g6
sg12
g6
sg13
g6
sg14
g6
sg15
g6
sg16
g6
sg17
g6
sg18
g6
sg19
g30
sg20
g6
sg21
I98718
sg22
g6
sg23
g6
sg24
g6
sg25
g6
sg26
g6
sg27
I98718
ssS'BECK SALLY W'
p115
(dp116
g3
F5.276828434723171
sg4
I7315
sg5
g6
sg7
I37172
sg8
I00
sg9
g6
sg10
S'sally.beck@enron.com'
p117
sg12
g6
sg13
g6
sg14
I2639
sg15
g6
sg16
I4343
sg17
I566
sg18
g6
sg19
F3.3156804052498274
sg20
I700000
sg21
I126027
sg22
I144
sg23
I386
sg24
I126027
sg25
I231330
sg26
I969068
sg27
g6
ssS'HAUG DAVID L'
p118
(dp119
g3
F1.2216404886561953
sg4
I573
sg5
g6
sg7
I475
sg8
I00
sg9
g6
sg10
S'david.haug@enron.com'
p120
sg12
g6
sg13
g6
sg14
I471
sg15
g6
sg16
I19
sg17
g6
sg18
g6
sg19
F21.052631578947366
sg20
g6
sg21
I2217299
sg22
I4
sg23
I7
sg24
I2217299
sg25
g6
sg26
I475
sg27
g6
ssS'ECHOLS JOHN B'
p121
(dp122
g3
g30
sg4
g6
sg5
g6
sg7
I21530
sg8
I00
sg9
g6
sg10
S'john.echols@enron.com'
p123
sg12
I2234774
sg13
g6
sg14
g6
sg15
g6
sg16
g6
sg17
I53775
sg18
g6
sg19
g30
sg20
I200000
sg21
I1008941
sg22
g6
sg23
g6
sg24
I407503
sg25
I182245
sg26
I2692324
sg27
I601438
ssS'MENDELSOHN JOHN'
p124
(dp125
g3
g30
sg4
g6
sg5
g6
sg7
I148
sg8
I00
sg9
I-103750
sg10
g6
sg12
g6
sg13
g6
sg14
g6
sg15
g6
sg16
g6
sg17
g6
sg18
I103750
sg19
g30
sg20
g6
sg21
g6
sg22
g6
sg23
g6
sg24
g6
sg25
g6
sg26
I148
sg27
g6
ssS'HICKERSON GARY J'
p126
(dp127
g3
F0.07575757575757576
sg4
I1320
sg5
g6
sg7
I98849
sg8
I00
sg9
g6
sg10
S'gary.hickerson@enron.com'
p128
sg12
I69223
sg13
g6
sg14
I900
sg15
g6
sg16
I27
sg17
I1936
sg18
g6
sg19
F148.14814814814815
sg20
I1700000
sg21
I441096
sg22
I40
sg23
I1
sg24
I441096
sg25
I211788
sg26
I2081796
sg27
g6
ssS'CLINE KENNETH W'
p129
(dp130
g3
g30
sg4
g6
sg5
g6
sg7
g6
sg8
I00
sg9
g6
sg10
g6
sg12
g6
sg13
I-472568
sg14
g6
sg15
g6
sg16
g6
sg17
g6
sg18
g6
sg19
g30
sg20
g6
sg21
I189518
sg22
g6
sg23
g6
sg24
I662086
sg25
g6
sg26
g6
sg27
g6
ssS'LEWIS RICHARD'
p131
(dp132
g3
F0.0
sg4
I952
sg5
g6
sg7
g6
sg8
I00
sg9
g6
sg10
S'richard.lewis@enron.com'
p133
sg12
g6
sg13
g6
sg14
I739
sg15
g6
sg16
I26
sg17
g6
sg18
g6
sg19
F38.46153846153847
sg20
g6
sg21
I850477
sg22
I10
sg23
I0
sg24
g6
sg25
g6
sg26
g6
sg27
I850477
ssS'HAYES ROBERT E'
p134
(dp135
g3
F0.0
sg4
I504
sg5
I7961
sg7
g6
sg8
I00
sg9
g6
sg10
S'robert.hayes@enron.com'
p136
sg12
g6
sg13
g6
sg14
I50
sg15
g6
sg16
I12
sg17
g6
sg18
g6
sg19
F133.33333333333331
sg20
g6
sg21
I151418
sg22
I16
sg23
I0
sg24
I151418
sg25
g6
sg26
I7961
sg27
g6
ssS'MCCARTY DANNY J'
p137
(dp138
g3
F0.13956734124214934
sg4
I1433
sg5
g6
sg7
g6
sg8
I00
sg9
g6
sg10
S'danny.mccarty@enron.com'
p139
sg12
g6
sg13
g6
sg14
I508
sg15
g6
sg16
I215
sg17
g6
sg18
g6
sg19
F11.627906976744185
sg20
g6
sg21
I758931
sg22
I25
sg23
I2
sg24
I94556
sg25
g6
sg26
g6
sg27
I664375
ssS'KOPPER MICHAEL J'
p140
(dp141
g3
g30
sg4
g6
sg5
g6
sg7
I118134
sg8
I01
sg9
g6
sg10
S'michael.kopper@enron.com'
p142
sg12
I602671
sg13
g6
sg14
g6
sg15
g6
sg16
g6
sg17
I907502
sg18
g6
sg19
g30
sg20
I800000
sg21
I985032
sg22
g6
sg23
g6
sg24
I985032
sg25
I224305
sg26
I2652612
sg27
g6
ssS'LEFF DANIEL P'
p143
(dp144
g3
F0.4961020552799433
sg4
I2822
sg5
g6
sg7
g6
sg8
I00
sg9
g6
sg10
S'dan.leff@enron.com'
p145
sg12
I1387399
sg13
g6
sg14
I2672
sg15
g6
sg16
I63
sg17
I3083
sg18
g6
sg19
F106.34920634920636
sg20
I1000000
sg21
I360528
sg22
I67
sg23
I14
sg24
I360528
sg25
I273746
sg26
I2664228
sg27
g6
ssS'LAVORATO JOHN J'
p146
(dp147
g3
F5.661936905909905
sg4
I7259
sg5
g6
sg7
I49537
sg8
I00
sg9
g6
sg10
S'john.lavorato@enron.com'
p148
sg12
I2035380
sg13
g6
sg14
I3962
sg15
g6
sg16
I2585
sg17
I1552
sg18
g6
sg19
F20.425531914893615
sg20
I8000000
sg21
I5167144
sg22
I528
sg23
I411
sg24
I1008149
sg25
I339288
sg26
I10425757
sg27
I4158995
ssS'BERBERIAN DAVID'
p149
(dp150
g3
g30
sg4
g6
sg5
g6
sg7
I11892
sg8
I00
sg9
g6
sg10
S'david.berberian@enron.com'
p151
sg12
g6
sg13
g6
sg14
g6
sg15
g6
sg16
g6
sg17
g6
sg18
g6
sg19
g30
sg20
g6
sg21
I2493616
sg22
g6
sg23
g6
sg24
I869220
sg25
I216582
sg26
I228474
sg27
I1624396
ssS'DETMERING TIMOTHY J'
p152
(dp153
g3
g30
sg4
g6
sg5
I875307
sg7
I52255
sg8
I00
sg9
I-775241
sg10
S'timothy.detmering@enron.com'
p154
sg12
I415657
sg13
I-315068
sg14
g6
sg15
g6
sg16
g6
sg17
I1105
sg18
g6
sg19
g30
sg20
I425000
sg21
I2027865
sg22
g6
sg23
g6
sg24
I315068
sg25
I210500
sg26
I1204583
sg27
I2027865
ssS'WAKEHAM JOHN'
p155
(dp156
g3
g30
sg4
g6
sg5
g6
sg7
I103773
sg8
I00
sg9
g6
sg10
g6
sg12
g6
sg13
g6
sg14
g6
sg15
g6
sg16
g6
sg17
g6
sg18
I109298
sg19
g30
sg20
g6
sg21
g6
sg22
g6
sg23
g6
sg24
g6
sg25
g6
sg26
I213071
sg27
g6
ssS'POWERS WILLIAM'
p157
(dp158
g3
F0.0
sg4
I653
sg5
g6
sg7
g6
sg8
I00
sg9
I-17500
sg10
S'ken.powers@enron.com'
p159
sg12
g6
sg13
g6
sg14
I12
sg15
g6
sg16
I26
sg17
g6
sg18
I17500
sg19
F0.0
sg20
g6
sg21
g6
sg22
I0
sg23
I0
sg24
g6
sg25
g6
sg26
g6
sg27
g6
ssS'GOLD JOSEPH'
p160
(dp161
g3
g30
sg4
g6
sg5
g6
sg7
g6
sg8
I00
sg9
g6
sg10
S'joe.gold@enron.com'
p162
sg12
I304805
sg13
g6
sg14
g6
sg15
g6
sg16
g6
sg17
I819288
sg18
g6
sg19
g30
sg20
I750000
sg21
I877611
sg22
g6
sg23
g6
sg24
I441096
sg25
I272880
sg26
I2146973
sg27
I436515
ssS'BANNANTINE JAMES M'
p163
(dp164
g3
F0.0
sg4
I566
sg5
g6
sg7
I56301
sg8
I00
sg9
I-5104
sg10
S'james.bannantine@enron.com'
p165
sg12
g6
sg13
I-560222
sg14
I465
sg15
g6
sg16
I29
sg17
I864523
sg18
g6
sg19
F134.48275862068965
sg20
g6
sg21
I5243487
sg22
I39
sg23
I0
sg24
I1757552
sg25
I477
sg26
I916197
sg27
I4046157
ssS'DUNCAN JOHN H'
p166
(dp167
g3
g30
sg4
g6
sg5
g6
sg7
g6
sg8
I00
sg9
I-25000
sg10
g6
sg12
g6
sg13
g6
sg14
g6
sg15
g6
sg16
g6
sg17
g6
sg18
I102492
sg19
g30
sg20
g6
sg21
I371750
sg22
g6
sg23
g6
sg24
g6
sg25
g6
sg26
I77492
sg27
I371750
ssS'SHAPIRO RICHARD S'
p168
(dp169
g3
F0.4290712258234867
sg4
I15149
sg5
g6
sg7
I137767
sg8
I00
sg9
g6
sg10
S'richard.shapiro@enron.com'
p170
sg12
g6
sg13
g6
sg14
I4527
sg15
g6
sg16
I1215
sg17
I705
sg18
g6
sg19
F6.090534979423869
sg20
I650000
sg21
I987001
sg22
I74
sg23
I65
sg24
I379164
sg25
I269076
sg26
I1057548
sg27
I607837
ssS'SHERRIFF JOHN R'
p171
(dp172
g3
F0.721681832444305
sg4
I3187
sg5
g6
sg7
g6
sg8
I00
sg9
g6
sg10
S'john.sherriff@enron.com'
p173
sg12
I554422
sg13
g6
sg14
I2103
sg15
g6
sg16
I92
sg17
I1852186
sg18
g6
sg19
F30.434782608695656
sg20
I1500000
sg21
I3128982
sg22
I28
sg23
I23
sg24
I1293424
sg25
I428780
sg26
I4335388
sg27
I1835558
ssS'SHELBY REX'
p174
(dp175
g3
F6.222222222222222
sg4
I225
sg5
g6
sg7
I22884
sg8
I01
sg9
I-4167
sg10
S'rex.shelby@enron.com'
p176
sg12
g6
sg13
g6
sg14
I91
sg15
g6
sg16
I39
sg17
I1573324
sg18
g6
sg19
F33.33333333333333
sg20
I200000
sg21
I2493616
sg22
I13
sg23
I14
sg24
I869220
sg25
I211844
sg26
I2003885
sg27
I1624396
ssS'LEMAISTRE CHARLES'
p177
(dp178
g3
g30
sg4
g6
sg5
g6
sg7
g6
sg8
I00
sg9
I-25000
sg10
g6
sg12
g6
sg13
g6
sg14
g6
sg15
g6
sg16
g6
sg17
g6
sg18
I112492
sg19
g30
sg20
g6
sg21
I412878
sg22
g6
sg23
g6
sg24
g6
sg25
g6
sg26
I87492
sg27
I412878
ssS'DEFFNER JOSEPH M'
p179
(dp180
g3
F0.5602240896358543
sg4
I714
sg5
g6
sg7
I41626
sg8
I00
sg9
g6
sg10
S'joseph.deffner@enron.com'
p181
sg12
I335349
sg13
g6
sg14
I552
sg15
g6
sg16
I74
sg17
I25553
sg18
g6
sg19
F155.4054054054054
sg20
I600000
sg21
I159211
sg22
I115
sg23
I4
sg24
I141833
sg25
I206121
sg26
I1208649
sg27
I17378
ssS'KISHKILL JOSEPH G'
p182
(dp183
g3
g30
sg4
g6
sg5
g6
sg7
I116335
sg8
I00
sg9
I-51042
sg10
S'joe.kishkill@enron.com'
p184
sg12
g6
sg13
g6
sg14
g6
sg15
g6
sg16
g6
sg17
I465357
sg18
g6
sg19
g30
sg20
g6
sg21
I1034346
sg22
g6
sg23
g6
sg24
I1034346
sg25
I174246
sg26
I704896
sg27
g6
ssS'WHALLEY LAWRENCE G'
p185
(dp186
g3
F0.39873733178268816
sg4
I6019
sg5
g6
sg7
I57838
sg8
I00
sg9
g6
sg10
S'greg.whalley@enron.com'
p187
sg12
I808346
sg13
g6
sg14
I3920
sg15
g6
sg16
I556
sg17
I301026
sg18
g6
sg19
F33.45323741007194
sg20
I3000000
sg21
I6079137
sg22
I186
sg23
I24
sg24
I2796177
sg25
I510364
sg26
I4677574
sg27
I3282960
ssS'MCCONNELL MICHAEL S'
p188
(dp189
g3
F5.827575848603185
sg4
I3329
sg5
g6
sg7
I81364
sg8
I00
sg9
g6
sg10
S'mike.mcconnell@enron.com'
p190
sg12
I554422
sg13
g6
sg14
I2189
sg15
g6
sg16
I2742
sg17
I540
sg18
g6
sg19
F3.3552151714077314
sg20
I1100000
sg21
I3101279
sg22
I92
sg23
I194
sg24
I1478269
sg25
I365038
sg26
I2101364
sg27
I1623010
ssS'PIRO JIM'
p191
(dp192
g3
F1.7241379310344827
sg4
I58
sg5
g6
sg7
g6
sg8
I00
sg9
g6
sg10
S'jim.piro@enron.com'
p193
sg12
g6
sg13
g6
sg14
I3
sg15
g6
sg16
I16
sg17
g6
sg18
g6
sg19
F0.0
sg20
g6
sg21
I47304
sg22
I0
sg23
I1
sg24
I47304
sg25
g6
sg26
g6
sg27
g6
ssS'DELAINEY DAVID W'
p194
(dp195
g3
F19.689621726479146
sg4
I3093
sg5
g6
sg7
I86174
sg8
I01
sg9
g6
sg10
S'david.delainey@enron.com'
p196
sg12
I1294981
sg13
g6
sg14
I2097
sg15
g6
sg16
I3069
sg17
I1661
sg18
g6
sg19
F2.1505376344086025
sg20
I3000000
sg21
I3614261
sg22
I66
sg23
I609
sg24
I1323148
sg25
I365163
sg26
I4747979
sg27
I2291113
ssS'SULLIVAN-SHAKLOVITZ COLLEEN'
p197
(dp198
g3
g30
sg4
g6
sg5
I181993
sg7
g6
sg8
I00
sg9
g6
sg10
g6
sg12
I554422
sg13
g6
sg14
g6
sg15
g6
sg16
g6
sg17
I162
sg18
g6
sg19
g30
sg20
I100000
sg21
I1362375
sg22
g6
sg23
g6
sg24
g6
sg25
I162779
sg26
I999356
sg27
I1362375
ssS'WROBEL BRUCE'
p199
(dp200
g3
g30
sg4
g6
sg5
g6
sg7
g6
sg8
I00
sg9
g6
sg10
g6
sg12
g6
sg13
g6
sg14
g6
sg15
g6
sg16
g6
sg17
g6
sg18
g6
sg19
g30
sg20
g6
sg21
I139130
sg22
g6
sg23
g6
sg24
g6
sg25
g6
sg26
g6
sg27
I139130
ssS'LINDHOLM TOD A'
p201
(dp202
g3
g30
sg4
g6
sg5
I204075
sg7
I57727
sg8
I00
sg9
g6
sg10
S'tod.lindholm@enron.com'
p203
sg12
I175000
sg13
g6
sg14
g6
sg15
g6
sg16
g6
sg17
I2630
sg18
g6
sg19
g30
sg20
I200000
sg21
I3064208
sg22
g6
sg23
g6
sg24
I514847
sg25
I236457
sg26
I875889
sg27
I2549361
ssS'MEYER JEROME J'
p204
(dp205
g3
g30
sg4
g6
sg5
g6
sg7
I2151
sg8
I00
sg9
I-38346
sg10
g6
sg12
g6
sg13
g6
sg14
g6
sg15
g6
sg16
g6
sg17
g6
sg18
I38346
sg19
g30
sg20
g6
sg21
g6
sg22
g6
sg23
g6
sg24
g6
sg25
g6
sg26
I2151
sg27
g6
ssS'LAY KENNETH L'
p206
(dp207
g3
F0.3744441844137608
sg4
I4273
sg5
I202911
sg7
I99832
sg8
I01
sg9
I-300000
sg10
S'kenneth.lay@enron.com'
p208
sg12
I3600000
sg13
g6
sg14
I2411
sg15
I81525000
sg16
I36
sg17
I10359729
sg18
g6
sg19
F341.66666666666663
sg20
I7000000
sg21
I49110078
sg22
I123
sg23
I16
sg24
I14761694
sg25
I1072321
sg26
I103559793
sg27
I34348384
ssS'BUTTS ROBERT H'
p209
(dp210
g3
g30
sg4
g6
sg5
g6
sg7
I9410
sg8
I00
sg9
I-75000
sg10
S'bob.butts@enron.com'
p211
sg12
I175000
sg13
g6
sg14
g6
sg15
g6
sg16
g6
sg17
I150656
sg18
g6
sg19
g30
sg20
I750000
sg21
I417619
sg22
g6
sg23
g6
sg24
I417619
sg25
I261516
sg26
I1271582
sg27
g6
ssS'OLSON CINDY K'
p212
(dp213
g3
F1.2668918918918919
sg4
I1184
sg5
I77716
sg7
I63791
sg8
I00
sg9
g6
sg10
S'cindy.olson@enron.com'
p214
sg12
I100000
sg13
g6
sg14
I856
sg15
g6
sg16
I52
sg17
I972
sg18
g6
sg19
F38.46153846153847
sg20
I750000
sg21
I2606763
sg22
I20
sg23
I15
sg24
I969729
sg25
I329078
sg26
I1321557
sg27
I1637034
ssS'MCDONALD REBECCA'
p215
(dp216
g3
F0.11185682326621924
sg4
I894
sg5
g6
sg7
g6
sg8
I00
sg9
g6
sg10
S'rebecca.mcdonald@enron.com'
p217
sg12
g6
sg13
g6
sg14
I720
sg15
g6
sg16
I13
sg17
g6
sg18
g6
sg19
F415.3846153846154
sg20
g6
sg21
I1691366
sg22
I54
sg23
I1
sg24
I934065
sg25
g6
sg26
g6
sg27
I757301
ssS'CUMBERLAND MICHAEL S'
p218
(dp219
g3
g30
sg4
g6
sg5
g6
sg7
I22344
sg8
I00
sg9
g6
sg10
g6
sg12
I275000
sg13
g6
sg14
g6
sg15
g6
sg16
g6
sg17
I713
sg18
g6
sg19
g30
sg20
I325000
sg21
I207940
sg22
g6
sg23
g6
sg24
I207940
sg25
I184899
sg26
I807956
sg27
g6
ssS'GAHN ROBERT S'
p220
(dp221
g3
g30
sg4
g6
sg5
I73122
sg7
I50080
sg8
I00
sg9
I-1042
sg10
g6
sg12
g6
sg13
g6
sg14
g6
sg15
g6
sg16
g6
sg17
I76547
sg18
g6
sg19
g30
sg20
I509870
sg21
I318607
sg22
g6
sg23
g6
sg24
I235370
sg25
I192008
sg26
I900585
sg27
I83237
ssS'MCCLELLAN GEORGE'
p222
(dp223
g3
F0.0
sg4
I1744
sg5
g6
sg7
I228763
sg8
I00
sg9
I-125000
sg10
S'george.mcclellan@enron.com'
p224
sg12
g6
sg13
g6
sg14
I1469
sg15
g6
sg16
I49
sg17
I51587
sg18
g6
sg19
F106.12244897959184
sg20
I900000
sg21
I947861
sg22
I52
sg23
I0
sg24
I441096
sg25
I263413
sg26
I1318763
sg27
I506765
ssS'HERMANN ROBERT J'
p225
(dp226
g3
g30
sg4
g6
sg5
g6
sg7
I48357
sg8
I00
sg9
I-280000
sg10
S'robert.hermann@enron.com'
p227
sg12
I150000
sg13
g6
sg14
g6
sg15
g6
sg16
g6
sg17
I416441
sg18
g6
sg19
g30
sg20
I700000
sg21
I668132
sg22
g6
sg23
g6
sg24
I480632
sg25
I262663
sg26
I1297461
sg27
I187500
ssS'SCRIMSHAW MATTHEW'
p228
(dp229
g3
g30
sg4
g6
sg5
g6
sg7
g6
sg8
I00
sg9
g6
sg10
S'matthew.scrimshaw@enron.com'
p230
sg12
g6
sg13
g6
sg14
g6
sg15
g6
sg16
g6
sg17
g6
sg18
g6
sg19
g30
sg20
g6
sg21
I759557
sg22
g6
sg23
g6
sg24
g6
sg25
g6
sg26
g6
sg27
I759557
ssS'GATHMANN WILLIAM D'
p231
(dp232
g3
g30
sg4
g6
sg5
g6
sg7
g6
sg8
I00
sg9
g6
sg10
g6
sg12
g6
sg13
I-72419
sg14
g6
sg15
g6
sg16
g6
sg17
g6
sg18
g6
sg19
g30
sg20
g6
sg21
I1945360
sg22
g6
sg23
g6
sg24
I264013
sg25
g6
sg26
g6
sg27
I1753766
ssS'HAEDICKE MARK E'
p233
(dp234
g3
F1.5215764529807931
sg4
I4009
sg5
I2157527
sg7
I76169
sg8
I00
sg9
I-934484
sg10
S'mark.haedicke@enron.com'
p235
sg12
I983346
sg13
I-329825
sg14
I1847
sg15
g6
sg16
I1941
sg17
I52382
sg18
g6
sg19
F9.273570324574962
sg20
I1150000
sg21
I803094
sg22
I180
sg23
I61
sg24
I524169
sg25
I374125
sg26
I3859065
sg27
I608750
ssS'BOWEN JR RAYMOND M'
p236
(dp237
g3
F0.8073196986006458
sg4
I1858
sg5
g6
sg7
I65907
sg8
I01
sg9
I-833
sg10
S'raymond.bowen@enron.com'
p238
sg12
I974293
sg13
g6
sg14
I1593
sg15
g6
sg16
I27
sg17
I1621
sg18
g6
sg19
F518.5185185185185
sg20
I1350000
sg21
I252055
sg22
I140
sg23
I15
sg24
I252055
sg25
I278601
sg26
I2669589
sg27
g6
ssS'GILLIS JOHN'
p239
(dp240
g3
g30
sg4
g6
sg5
g6
sg7
g6
sg8
I00
sg9
g6
sg10
g6
sg12
g6
sg13
g6
sg14
g6
sg15
g6
sg16
g6
sg17
g6
sg18
g6
sg19
g30
sg20
g6
sg21
I85641
sg22
g6
sg23
g6
sg24
I75838
sg25
g6
sg26
g6
sg27
I9803
ssS'FITZGERALD JAY L'
p241
(dp242
g3
F0.8547008547008548
sg4
I936
sg5
g6
sg7
I23870
sg8
I00
sg9
g6
sg10
S'jay.fitzgerald@enron.com'
p243
sg12
I556416
sg13
g6
sg14
I723
sg15
g6
sg16
I16
sg17
I285414
sg18
g6
sg19
F6.25
sg20
I350000
sg21
I1621236
sg22
I1
sg23
I8
sg24
I956775
sg25
I199157
sg26
I1414857
sg27
I664461
ssS'MORAN MICHAEL P'
p244
(dp245
g3
F0.0
sg4
I672
sg5
g6
sg7
g6
sg8
I00
sg9
g6
sg10
S'michael.moran@enron.com'
p246
sg12
g6
sg13
g6
sg14
I127
sg15
g6
sg16
I19
sg17
g6
sg18
g6
sg19
F0.0
sg20
g6
sg21
I221141
sg22
I0
sg23
I0
sg24
I161602
sg25
g6
sg26
g6
sg27
I59539
ssS'REDMOND BRIAN L'
p247
(dp248
g3
F2.9323758228605628
sg4
I1671
sg5
g6
sg7
I14689
sg8
I00
sg9
g6
sg10
S'brian.redmond@enron.com'
p249
sg12
g6
sg13
g6
sg14
I1063
sg15
g6
sg16
I221
sg17
g6
sg18
g6
sg19
F92.3076923076923
sg20
g6
sg21
I7890324
sg22
I204
sg23
I49
sg24
I381285
sg25
I96840
sg26
I111529
sg27
I7509039
ssS'BAZELIDES PHILIP J'
p250
(dp251
g3
g30
sg4
g6
sg5
I684694
sg7
g6
sg8
I00
sg9
g6
sg10
g6
sg12
I93750
sg13
g6
sg14
g6
sg15
g6
sg16
g6
sg17
I874
sg18
g6
sg19
g30
sg20
g6
sg21
I1599641
sg22
g6
sg23
g6
sg24
g6
sg25
I80818
sg26
I860136
sg27
I1599641
ssS'BELDEN TIMOTHY N'
p252
(dp253
g3
F1.3515204605180828
sg4
I7991
sg5
I2144013
sg7
I17355
sg8
I01
sg9
I-2334434
sg10
S'tim.belden@enron.com'
p254
sg12
g6
sg13
g6
sg14
I5521
sg15
g6
sg16
I484
sg17
I210698
sg18
g6
sg19
F47.107438016528924
sg20
I5249999
sg21
I1110705
sg22
I228
sg23
I108
sg24
I157569
sg25
I213999
sg26
I5501630
sg27
I953136
ssS'DURAN WILLIAM D'
p255
(dp256
g3
F0.33185840707964603
sg4
I904
sg5
g6
sg7
I25785
sg8
I00
sg9
g6
sg10
S'w.duran@enron.com'
p257
sg12
I1105218
sg13
g6
sg14
I599
sg15
g6
sg16
I12
sg17
I1568
sg18
g6
sg19
F883.3333333333334
sg20
I750000
sg21
I1640910
sg22
I106
sg23
I3
sg24
I189041
sg25
I210692
sg26
I2093263
sg27
I1451869
ssS'THORN TERENCE H'
p258
(dp259
g3
F0.0
sg4
I266
sg5
I16586
sg7
I46145
sg8
I00
sg9
g6
sg10
S'terence.thorn@enron.com'
p260
sg12
I200000
sg13
g6
sg14
I73
sg15
g6
sg16
I41
sg17
I426629
sg18
g6
sg19
F0.0
sg20
g6
sg21
I4817796
sg22
I0
sg23
I0
sg24
I365320
sg25
I222093
sg26
I911453
sg27
I4452476
ssS'FASTOW ANDREW S'
p261
(dp262
g3
g30
sg4
g6
sg5
g6
sg7
I55921
sg8
I01
sg9
I-1386055
sg10
S'andrew.fastow@enron.com'
p263
sg12
I1736055
sg13
g6
sg14
g6
sg15
g6
sg16
g6
sg17
I277464
sg18
g6
sg19
g30
sg20
I1300000
sg21
I1794412
sg22
g6
sg23
g6
sg24
I1794412
sg25
I440698
sg26
I2424083
sg27
g6
ssS'FOY JOE'
p264
(dp265
g3
F0.0
sg4
I57
sg5
I181755
sg7
g6
sg8
I00
sg9
g6
sg10
S'tracy.foy@enron.com'
p266
sg12
g6
sg13
g6
sg14
I2
sg15
g6
sg16
I13
sg17
g6
sg18
g6
sg19
F0.0
sg20
g6
sg21
I343434
sg22
I0
sg23
I0
sg24
g6
sg25
g6
sg26
I181755
sg27
I343434
ssS'CALGER CHRISTOPHER F'
p267
(dp268
g3
F0.962278675904542
sg4
I2598
sg5
g6
sg7
I35818
sg8
I01
sg9
I-262500
sg10
S'christopher.calger@enron.com'
p269
sg12
I375304
sg13
g6
sg14
I2188
sg15
g6
sg16
I144
sg17
I486
sg18
g6
sg19
F138.19444444444443
sg20
I1250000
sg21
I126027
sg22
I199
sg23
I25
sg24
I126027
sg25
I240189
sg26
I1639297
sg27
g6
ssS'RICE KENNETH D'
p270
(dp271
g3
F0.44198895027624313
sg4
I905
sg5
g6
sg7
I46950
sg8
I01
sg9
I-3504386
sg10
S'ken.rice@enron.com'
p272
sg12
I1617011
sg13
g6
sg14
I864
sg15
g6
sg16
I18
sg17
I174839
sg18
g6
sg19
F233.33333333333334
sg20
I1750000
sg21
I22542539
sg22
I42
sg23
I4
sg24
I2748364
sg25
I420636
sg26
I505050
sg27
I19794175
ssS'KAMINSKI WINCENTY J'
p273
(dp274
g3
F3.7117429997829388
sg4
I4607
sg5
g6
sg7
I83585
sg8
I00
sg9
g6
sg10
S'vince.kaminski@enron.com'
p275
sg12
I323466
sg13
g6
sg14
I583
sg15
g6
sg16
I14368
sg17
I4669
sg18
g6
sg19
F0.28535634743875277
sg20
I400000
sg21
I976037
sg22
I41
sg23
I171
sg24
I126027
sg25
I275101
sg26
I1086821
sg27
I850010
ssS'LOCKHART EUGENE E'
p276
(dp277
g3
g30
sg4
g6
sg5
g6
sg7
g6
sg8
I00
sg9
g6
sg10
g6
sg12
g6
sg13
g6
sg14
g6
sg15
g6
sg16
g6
sg17
g6
sg18
g6
sg19
g30
sg20
g6
sg21
g6
sg22
g6
sg23
g6
sg24
g6
sg25
g6
sg26
g6
sg27
g6
ssS'COX DAVID'
p278
(dp279
g3
F3.9215686274509802
sg4
I102
sg5
g6
sg7
I27861
sg8
I00
sg9
I-41250
sg10
S'chip.cox@enron.com'
p280
sg12
g6
sg13
g6
sg14
I71
sg15
g6
sg16
I33
sg17
I494
sg18
g6
sg19
F0.0
sg20
I800000
sg21
I495633
sg22
I0
sg23
I4
sg24
I378082
sg25
I314288
sg26
I1101393
sg27
I117551
ssS'OVERDYKE JR JERE C'
p281
(dp282
g3
g30
sg4
g6
sg5
g6
sg7
I18834
sg8
I00
sg9
g6
sg10
S'jere.overdyke@enron.com'
p283
sg12
I135836
sg13
g6
sg14
g6
sg15
g6
sg16
g6
sg17
I176
sg18
g6
sg19
g30
sg20
g6
sg21
I7307594
sg22
g6
sg23
g6
sg24
I2041016
sg25
I94941
sg26
I249787
sg27
I5266578
ssS'PEREIRA PAULO V. FERRAZ'
p284
(dp285
g3
g30
sg4
g6
sg5
g6
sg7
I27942
sg8
I00
sg9
I-101250
sg10
g6
sg12
g6
sg13
g6
sg14
g6
sg15
g6
sg16
g6
sg17
g6
sg18
I101250
sg19
g30
sg20
g6
sg21
g6
sg22
g6
sg23
g6
sg24
g6
sg25
g6
sg26
I27942
sg27
g6
ssS'STABLER FRANK'
p286
(dp287
g3
g30
sg4
g6
sg5
g6
sg7
I16514
sg8
I00
sg9
g6
sg10
S'frank.stabler@enron.com'
p288
sg12
g6
sg13
g6
sg14
g6
sg15
g6
sg16
g6
sg17
I356071
sg18
g6
sg19
g30
sg20
I500000
sg21
I511734
sg22
g6
sg23
g6
sg24
I511734
sg25
I239502
sg26
I1112087
sg27
g6
ssS'SKILLING JEFFREY K'
p289
(dp290
g3
F0.8271298593879239
sg4
I3627
sg5
g6
sg7
I29336
sg8
I01
sg9
g6
sg10
S'jeff.skilling@enron.com'
p291
sg12
I1920000
sg13
g6
sg14
I2042
sg15
g6
sg16
I108
sg17
I22122
sg18
g6
sg19
F81.48148148148148
sg20
I5600000
sg21
I26093672
sg22
I88
sg23
I30
sg24
I6843672
sg25
I1111258
sg26
I8682716
sg27
I19250000
ssS'BLAKE JR. NORMAN P'
p292
(dp293
g3
g30
sg4
g6
sg5
g6
sg7
I1279
sg8
I00
sg9
I-113784
sg10
g6
sg12
g6
sg13
g6
sg14
g6
sg15
g6
sg16
g6
sg17
g6
sg18
I113784
sg19
g30
sg20
g6
sg21
g6
sg22
g6
sg23
g6
sg24
g6
sg25
g6
sg26
I1279
sg27
g6
ssS'SHERRICK JEFFREY B'
p294
(dp295
g3
F2.936378466557912
sg4
I613
sg5
g6
sg7
g6
sg8
I00
sg9
g6
sg10
S'jeffrey.sherrick@enron.com'
p296
sg12
g6
sg13
g6
sg14
I583
sg15
g6
sg16
I25
sg17
g6
sg18
g6
sg19
F156.0
sg20
g6
sg21
I1832468
sg22
I39
sg23
I18
sg24
I405999
sg25
g6
sg26
g6
sg27
I1426469
ssS'PRENTICE JAMES'
p297
(dp298
g3
g30
sg4
g6
sg5
I564348
sg7
g6
sg8
I00
sg9
g6
sg10
S'james.prentice@enron.com'
p299
sg12
g6
sg13
g6
sg14
g6
sg15
g6
sg16
g6
sg17
g6
sg18
g6
sg19
g30
sg20
g6
sg21
I1095040
sg22
g6
sg23
g6
sg24
I208809
sg25
g6
sg26
I564348
sg27
I886231
ssS'GRAY RODNEY'
p300
(dp301
g3
g30
sg4
g6
sg5
I93585
sg7
g6
sg8
I00
sg9
g6
sg10
g6
sg12
I365625
sg13
g6
sg14
g6
sg15
g6
sg16
g6
sg17
I680833
sg18
g6
sg19
g30
sg20
g6
sg21
g6
sg22
g6
sg23
g6
sg24
g6
sg25
I6615
sg26
I1146658
sg27
g6
ssS'PICKERING MARK R'
p302
(dp303
g3
F0.0
sg4
I898
sg5
g6
sg7
I31653
sg8
I00
sg9
g6
sg10
S'mark.pickering@enron.com'
p304
sg12
g6
sg13
g6
sg14
I728
sg15
I400000
sg16
I67
sg17
g6
sg18
g6
sg19
F10.44776119402985
sg20
I300000
sg21
I28798
sg22
I7
sg23
I0
sg24
g6
sg25
I655037
sg26
I1386690
sg27
I28798
ssS'NOLES JAMES L'
p305
(dp306
g3
g30
sg4
g6
sg5
I774401
sg7
g6
sg8
I00
sg9
g6
sg10
g6
sg12
g6
sg13
I-94556
sg14
g6
sg15
g6
sg16
g6
sg17
g6
sg18
g6
sg19
g30
sg20
g6
sg21
I368705
sg22
g6
sg23
g6
sg24
I463261
sg25
g6
sg26
I774401
sg27
g6
ssS'KEAN STEVEN J'
p307
(dp308
g3
F3.034342167163243
sg4
I12754
sg5
g6
sg7
I41953
sg8
I00
sg9
g6
sg10
S'steven.kean@enron.com'
p309
sg12
I300000
sg13
g6
sg14
I3639
sg15
g6
sg16
I6759
sg17
I1231
sg18
g6
sg19
F2.07131232430833
sg20
I1000000
sg21
I6153642
sg22
I140
sg23
I387
sg24
I4131594
sg25
I404338
sg26
I1747522
sg27
I2022048
ssS'FOWLER PEGGY'
p310
(dp311
g3
F0.0
sg4
I517
sg5
g6
sg7
g6
sg8
I00
sg9
g6
sg10
S'kulvinder.fowler@enron.com'
p312
sg12
g6
sg13
g6
sg14
I10
sg15
g6
sg16
I36
sg17
g6
sg18
g6
sg19
F0.0
sg20
g6
sg21
I1884748
sg22
I0
sg23
I0
sg24
I560170
sg25
g6
sg26
g6
sg27
I1324578
ssS'WASAFF GEORGE'
p313
(dp314
g3
F1.7500000000000002
sg4
I400
sg5
I831299
sg7
g6
sg8
I00
sg9
I-583325
sg10
S'george.wasaff@enron.com'
p315
sg12
I200000
sg13
g6
sg14
I337
sg15
g6
sg16
I30
sg17
I1425
sg18
g6
sg19
F73.33333333333333
sg20
I325000
sg21
I2056427
sg22
I22
sg23
I7
sg24
I388167
sg25
I259996
sg26
I1034395
sg27
I1668260
ssS'WHITE JR THOMAS E'
p316
(dp317
g3
g30
sg4
g6
sg5
g6
sg7
I81353
sg8
I00
sg9
g6
sg10
S'thomas.white@enron.com'
p318
sg12
g6
sg13
g6
sg14
g6
sg15
g6
sg16
g6
sg17
I1085463
sg18
g6
sg19
g30
sg20
I450000
sg21
I15144123
sg22
g6
sg23
g6
sg24
I13847074
sg25
I317543
sg26
I1934359
sg27
I1297049
ssS'CHRISTODOULOU DIOMEDES'
p319
(dp320
g3
g30
sg4
g6
sg5
g6
sg7
g6
sg8
I00
sg9
g6
sg10
S'diomedes.christodoulou@enron.com'
p321
sg12
g6
sg13
g6
sg14
g6
sg15
g6
sg16
g6
sg17
g6
sg18
g6
sg19
g30
sg20
g6
sg21
I6077885
sg22
g6
sg23
g6
sg24
I950730
sg25
g6
sg26
g6
sg27
I5127155
ssS'ALLEN PHILLIP K'
p322
(dp323
g3
F2.239834596829773
sg4
I2902
sg5
I2869717
sg7
I13868
sg8
I00
sg9
I-3081055
sg10
S'phillip.allen@enron.com'
p324
sg12
I304805
sg13
I-126027
sg14
I1407
sg15
g6
sg16
I2195
sg17
I152
sg18
g6
sg19
F2.14123006833713
sg20
I4175000
sg21
I1729541
sg22
I47
sg23
I65
sg24
I126027
sg25
I201955
sg26
I4484442
sg27
I1729541
ssS'SHARP VICTORIA T'
p325
(dp326
g3
F0.1913265306122449
sg4
I3136
sg5
I187469
sg7
I116337
sg8
I00
sg9
g6
sg10
S'vicki.sharp@enron.com'
p327
sg12
I422158
sg13
g6
sg14
I2477
sg15
g6
sg16
I136
sg17
I2401
sg18
g6
sg19
F17.647058823529413
sg20
I600000
sg21
I494136
sg22
I24
sg23
I6
sg24
I213063
sg25
I248146
sg26
I1576511
sg27
I281073
ssS'JAEDICKE ROBERT'
p328
(dp329
g3
g30
sg4
g6
sg5
g6
sg7
g6
sg8
I00
sg9
I-25000
sg10
g6
sg12
g6
sg13
I-44093
sg14
g6
sg15
g6
sg16
g6
sg17
g6
sg18
I108750
sg19
g30
sg20
g6
sg21
I431750
sg22
g6
sg23
g6
sg24
I44093
sg25
g6
sg26
I83750
sg27
I431750
ssS'WINOKUR JR. HERBERT S'
p330
(dp331
g3
g30
sg4
g6
sg5
g6
sg7
I1413
sg8
I00
sg9
I-25000
sg10
g6
sg12
g6
sg13
g6
sg14
g6
sg15
g6
sg16
g6
sg17
g6
sg18
I108579
sg19
g30
sg20
g6
sg21
g6
sg22
g6
sg23
g6
sg24
g6
sg25
g6
sg26
I84992
sg27
g6
ssS'BROWN MICHAEL'
p332
(dp333
g3
F0.06729475100942127
sg4
I1486
sg5
g6
sg7
I49288
sg8
I00
sg9
g6
sg10
S'michael.brown@enron.com'
p334
sg12
g6
sg13
g6
sg14
I761
sg15
g6
sg16
I41
sg17
g6
sg18
g6
sg19
F31.70731707317073
sg20
g6
sg21
g6
sg22
I13
sg23
I1
sg24
g6
sg25
g6
sg26
I49288
sg27
g6
ssS'BADUM JAMES P'
p335
(dp336
g3
g30
sg4
g6
sg5
I178980
sg7
I3486
sg8
I00
sg9
g6
sg10
g6
sg12
g6
sg13
g6
sg14
g6
sg15
g6
sg16
g6
sg17
g6
sg18
g6
sg19
g30
sg20
g6
sg21
I257817
sg22
g6
sg23
g6
sg24
g6
sg25
g6
sg26
I182466
sg27
I257817
ssS'HUGHES JAMES A'
p337
(dp338
g3
F0.6954102920723227
sg4
I719
sg5
g6
sg7
g6
sg8
I00
sg9
g6
sg10
S'james.hughes@enron.com'
p339
sg12
g6
sg13
g6
sg14
I589
sg15
g6
sg16
I34
sg17
g6
sg18
g6
sg19
F102.94117647058823
sg20
g6
sg21
I1118394
sg22
I35
sg23
I5
sg24
I363428
sg25
g6
sg26
g6
sg27
I754966
ssS'REYNOLDS LAWRENCE'
p340
(dp341
g3
g30
sg4
g6
sg5
I51365
sg7
I8409
sg8
I00
sg9
I-200000
sg10
g6
sg12
I156250
sg13
I-140264
sg14
g6
sg15
g6
sg16
g6
sg17
I202052
sg18
g6
sg19
g30
sg20
I100000
sg21
I4221891
sg22
g6
sg23
g6
sg24
I201483
sg25
I76399
sg26
I394475
sg27
I4160672
ssS'DIMICHELE RICHARD G'
p342
(dp343
g3
g30
sg4
g6
sg5
g6
sg7
I35812
sg8
I00
sg9
g6
sg10
S'richard.dimichele@enron.com'
p344
sg12
I694862
sg13
g6
sg14
g6
sg15
g6
sg16
g6
sg17
I374689
sg18
g6
sg19
g30
sg20
I1000000
sg21
I8317782
sg22
g6
sg23
g6
sg24
I126027
sg25
I262788
sg26
I2368151
sg27
I8191755
ssS'BHATNAGAR SANJAY'
p345
(dp346
g3
F0.19120458891013384
sg4
I523
sg5
g6
sg7
g6
sg8
I00
sg9
g6
sg10
S'sanjay.bhatnagar@enron.com'
p347
sg12
g6
sg13
I15456290
sg14
I463
sg15
g6
sg16
I29
sg17
I137864
sg18
I137864
sg19
F0.0
sg20
g6
sS'total_stock_value'
p348
S'NaN'
p349
sg22
I0
sg23
I1
sg24
I-2604490
sg25
g6
sg26
I15456290
sg27
I2604490
ssS'CARTER REBECCA C'
p350
(dp351
g3
F2.2435897435897436
sg4
I312
sg5
g6
sg7
g6
sg8
I00
sg9
I-159792
sg10
S'rebecca.carter@enron.com'
p352
sg12
I75000
sg13
I-307301
sg14
I196
sg15
g6
sg16
I15
sg17
I540
sg18
g6
sg19
F193.33333333333334
sg20
I300000
sg21
g6
sg22
I29
sg23
I7
sg24
I307301
sg25
I261809
sg26
I477557
sg27
g6
ssS'BUCHANAN HAROLD G'
p353
(dp354
g3
F0.0
sg4
I1088
sg5
g6
sg7
I600
sg8
I00
sg9
g6
sg10
S'john.buchanan@enron.com'
p355
sg12
I304805
sg13
g6
sg14
I23
sg15
g6
sg16
I125
sg17
I1215
sg18
g6
sg19
F0.0
sg20
I500000
sg21
I1014505
sg22
I0
sg23
I0
sg24
I189041
sg25
I248017
sg26
I1054637
sg27
I825464
ssS'YEAP SOON'
p356
(dp357
g3
g30
sg4
g6
sg5
g6
sg7
I55097
sg8
I00
sg9
g6
sg10
g6
sg12
g6
sg13
g6
sg14
g6
sg15
g6
sg16
g6
sg17
g6
sg18
g6
sg19
g30
sg20
g6
sg21
I192758
sg22
g6
sg23
g6
sg24
g6
sg25
g6
sg26
I55097
sg27
I192758
ssS'MURRAY JULIA H'
p358
(dp359
g3
F0.09124087591240876
sg4
I2192
sg5
g6
sg7
I57580
sg8
I00
sg9
g6
sg10
S'julia.murray@enron.com'
p360
sg12
I125000
sg13
g6
sg14
I395
sg15
g6
sg16
I45
sg17
I330
sg18
g6
sg19
F24.444444444444443
sg20
I400000
sg21
I597461
sg22
I11
sg23
I2
sg24
I196983
sg25
I229284
sg26
I812194
sg27
I400478
ssS'GARLAND C KEVIN'
p361
(dp362
g3
F12.918660287081341
sg4
I209
sg5
g6
sg7
I48405
sg8
I00
sg9
g6
sg10
S'kevin.garland@enron.com'
p363
sg12
I375304
sg13
g6
sg14
I178
sg15
g6
sg16
I44
sg17
I60814
sg18
g6
sg19
F22.727272727272727
sg20
I850000
sg21
I896153
sg22
I10
sg23
I27
sg24
I259907
sg25
I231946
sg26
I1566469
sg27
I636246
ssS'DODSON KEITH'
p364
(dp365
g3
F1.7045454545454544
sg4
I176
sg5
g6
sg7
I28164
sg8
I00
sg9
g6
sg10
S'keith.dodson@enron.com'
p366
sg12
g6
sg13
g6
sg14
I114
sg15
g6
sg16
I14
sg17
I774
sg18
g6
sg19
F71.42857142857143
sg20
I70000
sg21
g6
sg22
I10
sg23
I3
sg24
g6
sg25
I221003
sg26
I319941
sg27
g6
ssS'YEAGER F SCOTT'
p367
(dp368
g3
g30
sg4
g6
sg5
g6
sg7
I53947
sg8
I01
sg9
g6
sg10
S'scott.yeager@enron.com'
p369
sg12
g6
sg13
g6
sg14
g6
sg15
g6
sg16
g6
sg17
I147950
sg18
g6
sg19
g30
sg20
g6
sg21
I11884758
sg22
g6
sg23
g6
sg24
I3576206
sg25
I158403
sg26
I360300
sg27
I8308552
ssS'HIRKO JOSEPH'
p370
(dp371
g3
g30
sg4
g6
sg5
I10259
sg7
I77978
sg8
I01
sg9
g6
sg10
S'joe.hirko@enron.com'
p372
sg12
g6
sg13
g6
sg14
g6
sg15
g6
sg16
g6
sg17
I2856
sg18
g6
sg19
g30
sg20
g6
sg21
I30766064
sg22
g6
sg23
g6
sg24
g6
sg25
g6
sg26
I91093
sg27
I30766064
ssS'DIETRICH JANET R'
p373
(dp374
g3
F0.5443234836702955
sg4
I2572
sg5
g6
sg7
I3475
sg8
I00
sg9
g6
sg10
S'janet.dietrich@enron.com'
p375
sg12
I556416
sg13
g6
sg14
I1902
sg15
g6
sg16
I63
sg17
I473
sg18
g6
sg19
F484.1269841269841
sg20
I600000
sg21
I1865087
sg22
I305
sg23
I14
sg24
I315068
sg25
I250100
sg26
I1410464
sg27
I1550019
ssS'DERRICK JR. JAMES V'
p376
(dp377
g3
F0.9170105456212746
sg4
I2181
sg5
g6
sg7
I51124
sg8
I00
sg9
I-1284000
sg10
S'james.derrick@enron.com'
p378
sg12
I484000
sg13
I-1787380
sg14
I1401
sg15
g6
sg16
I909
sg17
I7482
sg18
g6
sg19
F7.04070407040704
sg20
I800000
sg21
I8831913
sg22
I64
sg23
I20
sg24
I1787380
sg25
I492375
sg26
I550981
sg27
I8831913
ssS'FREVERT MARK A'
p379
(dp380
g3
F0.183206106870229
sg4
I3275
sg5
I6426990
sg7
I86987
sg8
I00
sg9
I-3367011
sg10
S'mark.frevert@enron.com'
p381
sg12
I1617011
sg13
g6
sg14
I2979
sg15
I2000000
sg16
I21
sg17
I7427621
sg18
g6
sg19
F1152.3809523809523
sg20
I2000000
sg21
I14622185
sg22
I242
sg23
I6
sg24
I4188667
sg25
I1060932
sg26
I17252530
sg27
I10433518
ssS'PAI LOU L'
p382
(dp383
g3
g30
sg4
g6
sg5
g6
sg7
I32047
sg8
I00
sg9
g6
sg10
S'lou.pai@enron.com'
p384
sg12
g6
sg13
g6
sg14
g6
sg15
g6
sg16
g6
sg17
I1829457
sg18
g6
sg19
g30
sg20
I1000000
sg21
I23817930
sg22
g6
sg23
g6
sg24
I8453763
sg25
I261879
sg26
I3123383
sg27
I15364167
ssS'BAY FRANKLIN R'
p385
(dp386
g3
g30
sg4
g6
sg5
I260455
sg7
I129142
sg8
I00
sg9
I-201641
sg10
S'frank.bay@enron.com'
p387
sg12
g6
sg13
I-82782
sg14
g6
sg15
g6
sg16
g6
sg17
I69
sg18
g6
sg19
g30
sg20
I400000
sg21
I63014
sg22
g6
sg23
g6
sg24
I145796
sg25
I239671
sg26
I827696
sg27
g6
ssS'HAYSLETT RODERICK J'
p388
(dp389
g3
F1.4345035862589657
sg4
I2649
sg5
g6
sg7
g6
sg8
I00
sg9
g6
sg10
S'rod.hayslett@enron.com'
p390
sg12
g6
sg13
g6
sg14
I571
sg15
g6
sg16
I1061
sg17
g6
sg18
g6
sg19
F3.298774740810556
sg20
g6
sg21
I346663
sg22
I35
sg23
I38
sg24
I346663
sg25
g6
sg26
g6
sg27
g6
ssS'FUGH JOHN L'
p391
(dp392
g3
g30
sg4
g6
sg5
I50591
sg7
g6
sg8
I00
sg9
g6
sg10
g6
sg12
g6
sg13
g6
sg14
g6
sg15
g6
sg16
g6
sg17
g6
sg18
g6
sg19
g30
sg20
g6
sg21
I176378
sg22
g6
sg23
g6
sg24
g6
sg25
g6
sg26
I50591
sg27
I176378
ssS'FALLON JAMES B'
p393
(dp394
g3
F2.1082621082621085
sg4
I1755
sg5
g6
sg7
I95924
sg8
I00
sg9
g6
sg10
S'jim.fallon@enron.com'
p395
sg12
I374347
sg13
g6
sg14
I1604
sg15
g6
sg16
I75
sg17
I401481
sg18
g6
sg19
F56.00000000000001
sg20
I2500000
sg21
I2332399
sg22
I42
sg23
I37
sg24
I1392142
sg25
I304588
sg26
I3676340
sg27
I940257
ssS'KOENIG MARK E'
p396
(dp397
g3
F0.6318449873631002
sg4
I2374
sg5
g6
sg7
I127017
sg8
I01
sg9
g6
sg10
S'mark.koenig@enron.com'
p398
sg12
I300000
sg13
g6
sg14
I2271
sg15
g6
sg16
I61
sg17
I150458
sg18
g6
sg19
F86.88524590163934
sg20
I700000
sg21
I1920055
sg22
I53
sg23
I15
sg24
I1248318
sg25
I309946
sg26
I1587421
sg27
I671737
ssS'SAVAGE FRANK'
p399
(dp400
g3
g30
sg4
g6
sg5
g6
sg7
g6
sg8
I00
sg9
I-121284
sg10
g6
sg12
g6
sg13
g6
sg14
g6
sg15
g6
sg16
g6
sg17
g6
sg18
I125034
sg19
g30
sg20
g6
sg21
g6
sg22
g6
sg23
g6
sg24
g6
sg25
g6
sg26
I3750
sg27
g6
ssS'IZZO LAWRENCE L'
p401
(dp402
g3
F1.0080645161290323
sg4
I496
sg5
g6
sg7
I28093
sg8
I00
sg9
g6
sg10
S'larry.izzo@enron.com'
p403
sg12
I312500
sg13
g6
sg14
I437
sg15
g6
sg16
I19
sg17
I1553729
sg18
g6
sg19
F147.36842105263156
sg20
g6
sg21
I5819980
sg22
I28
sg23
I5
sg24
I3654808
sg25
I85274
sg26
I1979596
sg27
I2165172
ssS'TILNEY ELIZABETH A'
p404
(dp405
g3
F2.391304347826087
sg4
I460
sg5
g6
sg7
g6
sg8
I00
sg9
I-575000
sg10
S'elizabeth.tilney@enron.com'
p406
sg12
I275000
sg13
g6
sg14
I379
sg15
g6
sg16
I19
sg17
I152055
sg18
g6
sg19
F52.63157894736842
sg20
I300000
sg21
I1168042
sg22
I10
sg23
I11
sg24
I576792
sg25
I247338
sg26
I399393
sg27
I591250
ssS'MARTIN AMANDA K'
p407
(dp408
g3
F0.0
sg4
I1522
sg5
I85430
sg7
I8211
sg8
I00
sg9
g6
sg10
S'a..martin@enron.com'
p409
sg12
I5145434
sg13
g6
sg14
I477
sg15
g6
sg16
I230
sg17
I2818454
sg18
g6
sg19
F3.4782608695652173
sg20
g6
sg21
I2070306
sg22
I8
sg23
I0
sg24
g6
sg25
I349487
sg26
I8407016
sg27
I2070306
ssS'BUY RICHARD B'
p410
(dp411
g3
F2.015327845586148
sg4
I3523
sg5
I649584
sg7
g6
sg8
I00
sg9
I-694862
sg10
S'rick.buy@enron.com'
p412
sg12
I769862
sg13
g6
sg14
I2333
sg15
g6
sg16
I1053
sg17
I400572
sg18
g6
sg19
F14.814814814814813
sg20
I900000
sg21
I3444470
sg22
I156
sg23
I71
sg24
I901657
sg25
I330546
sg26
I2355702
sg27
I2542813
ssS'GRAMM WENDY L'
p413
(dp414
g3
g30
sg4
g6
sg5
g6
sg7
g6
sg8
I00
sg9
g6
sg10
g6
sg12
g6
sg13
g6
sg14
g6
sg15
g6
sg16
g6
sg17
g6
sg18
I119292
sg19
g30
sg20
g6
sg21
g6
sg22
g6
sg23
g6
sg24
g6
sg25
g6
sg26
I119292
sg27
g6
ssS'CAUSEY RICHARD A'
p415
(dp416
g3
F0.6342494714587738
sg4
I1892
sg5
g6
sg7
I30674
sg8
I01
sg9
I-235000
sg10
S'richard.causey@enron.com'
p417
sg12
I350000
sg13
g6
sg14
I1585
sg15
g6
sg16
I49
sg17
I307895
sg18
g6
sg19
F118.36734693877551
sg20
I1000000
sg21
I2502063
sg22
I58
sg23
I12
sg24
I2502063
sg25
I415189
sg26
I1868758
sg27
g6
ssS'TAYLOR MITCHELL S'
p418
(dp419
g3
F0.0
sg4
I533
sg5
I227449
sg7
g6
sg8
I00
sg9
g6
sg10
S'mitchell.taylor@enron.com'
p420
sg12
g6
sg13
g6
sg14
I300
sg15
g6
sg16
I29
sg17
g6
sg18
g6
sg19
F0.0
sg20
I600000
sg21
I3745048
sg22
I0
sg23
I0
sg24
I563798
sg25
I265214
sg26
I1092663
sg27
I3181250
ssS'DONAHUE JR JEFFREY M'
p421
(dp422
g3
F1.2716763005780347
sg4
I865
sg5
g6
sg7
I96268
sg8
I00
sg9
I-300000
sg10
S'jeff.donahue@enron.com'
p423
sg12
g6
sg13
g6
sg14
I772
sg15
g6
sg16
I22
sg17
I891
sg18
g6
sg19
F854.5454545454545
sg20
I800000
sg21
I1080988
sg22
I188
sg23
I11
sg24
I315068
sg25
I278601
sg26
I875760
sg27
I765920
ssS'GLISAN JR BEN F'
p424
(dp425
g3
F0.6872852233676976
sg4
I873
sg5
g6
sg7
I125978
sg8
I01
sg9
g6
sg10
S'ben.glisan@enron.com'
p426
sg12
I71023
sg13
g6
sg14
I874
sg15
g6
sg16
I16
sg17
I200308
sg18
g6
sg19
F325.0
sg20
I600000
sg21
I778546
sg22
I52
sg23
I6
sg24
I393818
sg25
I274975
sg26
I1272284
sg27
I384728
ss.